Certificate:
    Data:
        Version: 3 (0x2)
        Serial Number: 4097 (0x1001)
        Signature Algorithm: sha256WithRSAEncryption
        Issuer: C=US, ST=Pennsylvania, L=Erie, O=Internet Widgits Pty Ltd, CN=AJBuilder
        Validity
            Not Before: Feb  7 20:14:16 2023 GMT
            Not After : Feb  7 20:14:16 2024 GMT
        Subject: C=US, ST=Pennsylvania, O=Internet Widgits Pty Ltd, CN=PKILabServer
        Subject Public Key Info:
            Public Key Algorithm: rsaEncryption
                Public-Key: (4096 bit)
                Modulus:
                    00:e2:12:03:42:7a:26:44:60:32:4b:09:fe:b0:66:
                    a2:cc:78:da:4a:c3:c8:3d:a0:6e:c2:54:18:54:15:
                    75:f3:80:c4:a6:4e:36:02:d6:a9:94:9e:e6:dd:fb:
                    09:48:64:06:2f:f2:b6:ad:f5:33:26:34:d7:a2:69:
                    cf:8b:79:1c:c5:1f:c5:af:4d:4b:6e:d7:e0:05:2f:
                    1c:ec:06:e7:19:da:56:24:6d:1d:da:d2:f1:0a:45:
                    24:cf:eb:ce:13:6e:3d:ea:99:7b:3a:25:8b:15:f5:
                    d3:5b:94:17:6e:e3:b8:a4:32:94:f7:7f:11:a6:81:
                    b7:f3:ff:85:86:3c:a8:f0:cd:42:86:18:21:b5:0f:
                    f0:e3:b8:3a:06:28:e2:dd:25:0b:d9:e7:bc:49:04:
                    2e:93:87:0d:31:be:4d:5c:a1:f0:48:93:da:a8:0b:
                    78:24:43:cd:5c:b7:3f:ea:d4:55:69:18:ba:e7:03:
                    96:59:96:8e:31:fc:da:69:a1:4c:60:04:94:ca:47:
                    15:04:20:a3:57:b6:43:98:4f:2d:d2:f3:72:63:89:
                    9c:96:e2:98:a7:c6:31:db:88:5e:d2:b6:e5:c3:28:
                    20:e9:f9:0a:2b:85:d3:b6:cc:65:c4:e8:d3:97:4f:
                    5d:8a:14:08:5e:02:54:7c:a5:01:28:f8:b4:dd:90:
                    27:00:0e:84:3a:e2:04:fa:26:d3:76:f1:ff:ee:49:
                    c8:8c:07:0c:08:34:90:09:b8:9b:26:cc:f4:08:ea:
                    4a:28:1b:12:4a:3d:61:6a:d9:61:41:18:c5:89:59:
                    d3:11:39:91:ac:d8:42:a1:89:49:c9:2f:49:f0:da:
                    68:26:b6:f6:d2:b9:bf:ad:f9:f0:1d:26:b4:fe:8c:
                    c4:31:29:f5:82:88:d5:55:f9:9c:fc:2e:22:a6:b8:
                    5e:0f:64:6d:23:a3:d8:70:2d:98:44:e1:c7:d0:da:
                    6c:c1:cb:10:55:3b:05:27:9b:78:2b:8c:c2:1c:47:
                    15:f5:1f:a5:e9:7e:1a:7f:4e:65:34:3d:4e:d1:ee:
                    77:37:6f:26:50:4d:bb:b7:6a:41:35:73:af:00:d7:
                    23:17:53:32:ba:70:95:bb:6a:18:8f:1e:17:eb:12:
                    48:f3:d5:2e:a3:5d:a5:29:27:15:41:3f:df:18:92:
                    05:59:4b:12:01:7f:d9:9a:8a:e3:a4:d1:49:63:27:
                    c8:21:ab:84:13:fa:d5:3e:48:ab:6a:3c:d0:05:5e:
                    2e:d1:92:96:41:1a:f6:d1:d9:b3:b3:64:15:62:76:
                    8b:02:00:0c:3c:83:02:94:ea:f0:03:20:10:6e:b9:
                    b5:a2:b8:eb:cb:4a:20:f5:75:c3:ed:bb:23:d8:29:
                    02:88:bd
                Exponent: 65537 (0x10001)
        X509v3 extensions:
            X509v3 Basic Constraints: 
                CA:FALSE
            X509v3 Subject Key Identifier: 
                33:25:82:58:5D:3F:F1:5F:5C:49:EE:DD:E2:E8:DC:60:21:B7:43:08
            X509v3 Authority Key Identifier: 
                ED:53:22:5B:F3:E0:A9:2C:EE:A5:D4:46:64:62:03:97:86:0E:F9:9A
    Signature Algorithm: sha256WithRSAEncryption
    Signature Value:
        90:cf:52:43:3b:cc:93:a8:3e:a1:6a:03:52:94:9c:a3:e7:95:
        35:db:04:f6:44:6f:c7:a8:66:14:64:b9:15:1d:7d:40:50:bf:
        cd:b3:ef:6b:ff:e1:64:f2:41:ab:45:cf:a9:b5:c2:7f:7c:a0:
        54:d6:66:3c:99:62:9e:b2:e9:f8:22:f8:fd:4e:74:f2:6a:ed:
        be:dc:43:16:35:55:10:ae:84:f2:76:83:fa:01:02:23:7c:fb:
        5f:f2:59:1b:91:e0:5d:1e:a3:87:c5:05:0d:53:49:e3:f0:3e:
        b6:e3:78:84:ec:66:18:61:90:13:89:d5:fb:15:3a:e2:6f:6f:
        d2:6a:2b:60:38:8f:b4:32:56:3f:3e:1d:d3:23:94:78:ab:fb:
        35:7c:8b:e5:b2:57:81:c0:e5:42:a7:cd:00:c5:72:54:50:ab:
        a7:48:61:57:2b:20:87:73:f7:8f:aa:62:6d:e4:50:70:4f:39:
        94:54:96:89:71:9e:2d:be:8d:b0:b2:fb:eb:38:d5:16:db:04:
        7e:30:de:b9:be:2d:da:81:fb:a4:5d:d6:cc:45:3d:a1:c4:ed:
        94:39:6d:2b:c1:66:ec:63:b9:d2:73:76:1c:69:69:e1:17:40:
        cd:bf:59:f3:ec:f4:98:1d:41:10:30:02:28:b1:ad:9c:c4:2e:
        34:64:5a:36
-----BEGIN CERTIFICATE-----
MIIEkTCCA3mgAwIBAgICEAEwDQYJKoZIhvcNAQELBQAwajELMAkGA1UEBhMCVVMx
FTATBgNVBAgMDFBlbm5zeWx2YW5pYTENMAsGA1UEBwwERXJpZTEhMB8GA1UECgwY
SW50ZXJuZXQgV2lkZ2l0cyBQdHkgTHRkMRIwEAYDVQQDDAlBSkJ1aWxkZXIwHhcN
MjMwMjA3MjAxNDE2WhcNMjQwMjA3MjAxNDE2WjBeMQswCQYDVQQGEwJVUzEVMBMG
A1UECAwMUGVubnN5bHZhbmlhMSEwHwYDVQQKDBhJbnRlcm5ldCBXaWRnaXRzIFB0
eSBMdGQxFTATBgNVBAMMDFBLSUxhYlNlcnZlcjCCAiIwDQYJKoZIhvcNAQEBBQAD
ggIPADCCAgoCggIBAOISA0J6JkRgMksJ/rBmosx42krDyD2gbsJUGFQVdfOAxKZO
NgLWqZSe5t37CUhkBi/ytq31MyY016Jpz4t5HMUfxa9NS27X4AUvHOwG5xnaViRt
HdrS8QpFJM/rzhNuPeqZezolixX101uUF27juKQylPd/EaaBt/P/hYY8qPDNQoYY
IbUP8OO4OgYo4t0lC9nnvEkELpOHDTG+TVyh8EiT2qgLeCRDzVy3P+rUVWkYuucD
llmWjjH82mmhTGAElMpHFQQgo1e2Q5hPLdLzcmOJnJbimKfGMduIXtK25cMoIOn5
CiuF07bMZcTo05dPXYoUCF4CVHylASj4tN2QJwAOhDriBPom03bx/+5JyIwHDAg0
kAm4mybM9AjqSigbEko9YWrZYUEYxYlZ0xE5kazYQqGJSckvSfDaaCa29tK5v635
8B0mtP6MxDEp9YKI1VX5nPwuIqa4Xg9kbSOj2HAtmEThx9DabMHLEFU7BSebeCuM
whxHFfUfpel+Gn9OZTQ9TtHudzdvJlBNu7dqQTVzrwDXIxdTMrpwlbtqGI8eF+sS
SPPVLqNdpSknFUE/3xiSBVlLEgF/2ZqK46TRSWMnyCGrhBP61T5Iq2o80AVeLtGS
lkEa9tHZs7NkFWJ2iwIADDyDApTq8AMgEG65taK468tKIPV1w+27I9gpAoi9AgMB
AAGjTTBLMAkGA1UdEwQCMAAwHQYDVR0OBBYEFDMlglhdP/FfXEnu3eLo3GAht0MI
MB8GA1UdIwQYMBaAFO1TIlvz4Kks7qXURmRiA5eGDvmaMA0GCSqGSIb3DQEBCwUA
A4IBAQCQz1JDO8yTqD6hagNSlJyj55U12wT2RG/HqGYUZLkVHX1AUL/Ns+9r/+Fk
8kGrRc+ptcJ/fKBU1mY8mWKesun4Ivj9TnTyau2+3EMWNVUQroTydoP6AQIjfPtf
8lkbkeBdHqOHxQUNU0nj8D6243iE7GYYYZATidX7FTrib2/SaitgOI+0MlY/Ph3T
I5R4q/s1fIvlsleBwOVCp80AxXJUUKunSGFXKyCHc/ePqmJt5FBwTzmUVJaJcZ4t
vo2wsvvrONUW2wR+MN65vi3agfukXdbMRT2hxO2UOW0rwWbsY7nSc3YcaWnhF0DN
v1nz7PSYHUEQMAIosa2cxC40ZFo2
-----END CERTIFICATE-----
